Certificate:
    Data:
        Version: 3 (0x2)
        Serial Number: 4099 (0x1003)
    Signature Algorithm: ecdsa-with-SHA384
        Issuer: C=IN, ST=HAR, O=Soket Labs, OU=Soket Labs Intermediary CA, CN=int.pravah.io/emailAddress=ca@soket.in
        Validity
            Not Before: Feb 17 18:17:32 2020 GMT
            Not After : Feb 16 18:17:32 2022 GMT
        Subject: C=IN, ST=HAR, L=Gurgaon, O=Soket Labs, OU=Pravah Auth Server, CN=auth.pravah.io/emailAddress=auth@pravah.io
        Subject Public Key Info:
            Public Key Algorithm: id-ecPublicKey
                Public-Key: (384 bit)
                pub: 
                    04:f3:1c:67:fe:87:87:b6:e0:19:18:53:4b:fc:aa:
                    05:26:87:80:04:5c:58:c9:65:ed:b7:3a:82:43:dc:
                    67:37:09:c9:78:95:45:0f:f9:e9:7a:01:42:ef:32:
                    41:6e:e3:8a:3a:96:c3:66:32:72:5a:80:ba:52:40:
                    40:28:a1:30:bd:00:43:a2:85:0b:0d:97:e1:1e:74:
                    eb:c2:51:15:b9:42:6c:b5:d6:65:97:a0:36:f0:07:
                    6c:f6:48:4e:7a:d3:e6
                ASN1 OID: secp384r1
                NIST CURVE: P-384
        X509v3 extensions:
            X509v3 Basic Constraints: 
                CA:FALSE
            Netscape Cert Type: 
                SSL Server
            Netscape Comment: 
                Soket Generated Server Certificate
            X509v3 Subject Key Identifier: 
                35:D0:76:3A:1F:13:AC:2B:18:DD:03:AD:97:D6:A0:AF:C5:26:6E:7E
            X509v3 Authority Key Identifier: 
                keyid:B1:C6:04:D3:7F:5A:B4:CE:2D:03:8E:4E:E7:20:17:7E:C6:2B:B8:7F
                DirName:/C=IN/ST=HAR/L=Gurgaon/O=Soket Labs/OU=Soket Labs Root CA/emailAddress=ca@soket.in
                serial:10:00

            X509v3 Key Usage: critical
                Digital Signature, Key Encipherment
            X509v3 Extended Key Usage: 
                TLS Web Server Authentication
            X509v3 CRL Distribution Points: 

                Full Name:
                  URI:http://ca.pravah.io/list.crl

            Authority Information Access: 
                CA Issuers - URI:http://ca.pravah.io/root.crt
                OCSP - URI:http://ocsp.pravah.io/

            X509v3 Subject Alternative Name: 
                DNS:auth.pravah.io, DNS:127.0.0.1, DNS:localhost
    Signature Algorithm: ecdsa-with-SHA384
         30:65:02:30:4a:0d:d3:49:7d:cf:a9:66:5b:a7:c1:a7:17:b9:
         41:22:b8:8d:02:a6:27:95:d4:40:86:5d:3a:39:34:3c:74:7f:
         ca:c1:e6:3e:d1:1c:d9:00:b0:59:00:32:75:41:34:81:02:31:
         00:f8:0e:10:b1:bf:44:84:78:b4:e2:1c:c9:5e:bc:3e:d9:05:
         af:cf:12:4d:3f:c9:26:13:dc:86:54:be:a6:d7:02:a4:cc:56:
         5d:bb:5e:68:0a:05:f4:04:b7:c0:ee:e6:c3
-----BEGIN CERTIFICATE-----
MIIEUTCCA9egAwIBAgICEAMwCgYIKoZIzj0EAwMwgYkxCzAJBgNVBAYTAklOMQww
CgYDVQQIDANIQVIxEzARBgNVBAoMClNva2V0IExhYnMxIzAhBgNVBAsMGlNva2V0
IExhYnMgSW50ZXJtZWRpYXJ5IENBMRYwFAYDVQQDDA1pbnQucHJhdmFoLmlvMRow
GAYJKoZIhvcNAQkBFgtjYUBzb2tldC5pbjAeFw0yMDAyMTcxODE3MzJaFw0yMjAy
MTYxODE3MzJaMIGXMQswCQYDVQQGEwJJTjEMMAoGA1UECAwDSEFSMRAwDgYDVQQH
DAdHdXJnYW9uMRMwEQYDVQQKDApTb2tldCBMYWJzMRswGQYDVQQLDBJQcmF2YWgg
QXV0aCBTZXJ2ZXIxFzAVBgNVBAMMDmF1dGgucHJhdmFoLmlvMR0wGwYJKoZIhvcN
AQkBFg5hdXRoQHByYXZhaC5pbzB2MBAGByqGSM49AgEGBSuBBAAiA2IABPMcZ/6H
h7bgGRhTS/yqBSaHgARcWMll7bc6gkPcZzcJyXiVRQ/56XoBQu8yQW7jijqWw2Yy
clqAulJAQCihML0AQ6KFCw2X4R5068JRFblCbLXWZZegNvAHbPZITnrT5qOCAgAw
ggH8MAkGA1UdEwQCMAAwEQYJYIZIAYb4QgEBBAQDAgZAMDEGCWCGSAGG+EIBDQQk
FiJTb2tldCBHZW5lcmF0ZWQgU2VydmVyIENlcnRpZmljYXRlMB0GA1UdDgQWBBQ1
0HY6HxOsKxjdA62X1qCvxSZufjCBpgYDVR0jBIGeMIGbgBSxxgTTf1q0zi0Djk7n
IBd+xiu4f6F/pH0wezELMAkGA1UEBhMCSU4xDDAKBgNVBAgMA0hBUjEQMA4GA1UE
BwwHR3VyZ2FvbjETMBEGA1UECgwKU29rZXQgTGFiczEbMBkGA1UECwwSU29rZXQg
TGFicyBSb290IENBMRowGAYJKoZIhvcNAQkBFgtjYUBzb2tldC5pboICEAAwDgYD
VR0PAQH/BAQDAgWgMBMGA1UdJQQMMAoGCCsGAQUFBwMBMC0GA1UdHwQmMCQwIqAg
oB6GHGh0dHA6Ly9jYS5wcmF2YWguaW8vbGlzdC5jcmwwXAYIKwYBBQUHAQEEUDBO
MCgGCCsGAQUFBzAChhxodHRwOi8vY2EucHJhdmFoLmlvL3Jvb3QuY3J0MCIGCCsG
AQUFBzABhhZodHRwOi8vb2NzcC5wcmF2YWguaW8vMC8GA1UdEQQoMCaCDmF1dGgu
cHJhdmFoLmlvggkxMjcuMC4wLjGCCWxvY2FsaG9zdDAKBggqhkjOPQQDAwNoADBl
AjBKDdNJfc+pZlunwacXuUEiuI0CpieV1ECGXTo5NDx0f8rB5j7RHNkAsFkAMnVB
NIECMQD4DhCxv0SEeLTiHMlevD7ZBa/PEk0/ySYT3IZUvqbXAqTMVl27XmgKBfQE
t8Du5sM=
-----END CERTIFICATE-----
